libias-audio-common.so.4:_Z8logToDltIN8IasAudio15IasThreadResultEEiR14DltContextDataRKT_
libias-audio-common.so.4:_Z8logToDltIN8IasAudio9IasThread25IasThreadSchedulingPolicyEEiR14DltContextDataRKT_
libias-audio-common.so.4:_ZN8IasAudio11IasFdSignal11changeGroupERKNSt7__cxx1112basic_stringIcSt11char_traitsIcESaIcEEES8_
libias-audio-common.so.4:_ZN8IasAudio11IasFdSignal4openERKNSt7__cxx1112basic_stringIcSt11char_traitsIcESaIcEEENS0_7IasModeE
libias-audio-common.so.4:_ZN8IasAudio11IasFdSignal4readEv
libias-audio-common.so.4:_ZN8IasAudio11IasFdSignal5closeEv
libias-audio-common.so.4:_ZN8IasAudio11IasFdSignal5writeEv
libias-audio-common.so.4:_ZN8IasAudio11IasFdSignal6createERKNSt7__cxx1112basic_stringIcSt11char_traitsIcESaIcEEES8_
libias-audio-common.so.4:_ZN8IasAudio11IasFdSignal7destroyEv
libias-audio-common.so.4:_ZN8IasAudio11IasFdSignal7fixNameERKNSt7__cxx1112basic_stringIcSt11char_traitsIcESaIcEEE
libias-audio-common.so.4:_ZN8IasAudio11IasFdSignalC1Ev
libias-audio-common.so.4:_ZN8IasAudio11IasFdSignalC2Ev
libias-audio-common.so.4:_ZN8IasAudio11IasFdSignalD0Ev
libias-audio-common.so.4:_ZN8IasAudio11IasFdSignalD1Ev
libias-audio-common.so.4:_ZN8IasAudio11IasFdSignalD2Ev
libias-audio-common.so.4:_ZN8IasAudio12IasDataProbe10injectDataEPNS_12IasAudioAreaEjj
libias-audio-common.so.4:_ZN8IasAudio12IasDataProbe10read_int32Ej
libias-audio-common.so.4:_ZN8IasAudio12IasDataProbe10read_shortEj
libias-audio-common.so.4:_ZN8IasAudio12IasDataProbe10recordDataEPNS_12IasAudioAreaEjj
libias-audio-common.so.4:_ZN8IasAudio12IasDataProbe11startInjectERKNSt7__cxx1112basic_stringIcSt11char_traitsIcESaIcEEEjjNS_24IasAudioCommonDataFormatEjjj
libias-audio-common.so.4:_ZN8IasAudio12IasDataProbe11write_int32Ej
libias-audio-common.so.4:_ZN8IasAudio12IasDataProbe11write_shortEj
libias-audio-common.so.4:_ZN8IasAudio12IasDataProbe12read_float32Ej
libias-audio-common.so.4:_ZN8IasAudio12IasDataProbe13write_float32Ej
libias-audio-common.so.4:_ZN8IasAudio12IasDataProbe14startRecordingERKNSt7__cxx1112basic_stringIcSt11char_traitsIcESaIcEEEjjNS_24IasAudioCommonDataFormatEjjj
libias-audio-common.so.4:_ZN8IasAudio12IasDataProbe18checkWaveFileInfosER7SF_INFOjNS_24IasAudioCommonDataFormatE
libias-audio-common.so.4:_ZN8IasAudio12IasDataProbe18updateFilePositionEi
libias-audio-common.so.4:_ZN8IasAudio12IasDataProbe4stopEv
libias-audio-common.so.4:_ZN8IasAudio12IasDataProbe5resetEv
libias-audio-common.so.4:_ZN8IasAudio12IasDataProbe7processEPNS_12IasAudioAreaEjj
libias-audio-common.so.4:_ZN8IasAudio12IasDataProbeC1Ev
libias-audio-common.so.4:_ZN8IasAudio12IasDataProbeC2Ev
libias-audio-common.so.4:_ZN8IasAudio12IasDataProbeD0Ev
libias-audio-common.so.4:_ZN8IasAudio12IasDataProbeD1Ev
libias-audio-common.so.4:_ZN8IasAudio12IasDataProbeD2Ev
libias-audio-common.so.4:_ZN8IasAudio12IasIRunnableC1Ev
libias-audio-common.so.4:_ZN8IasAudio12IasIRunnableC2Ev
libias-audio-common.so.4:_ZN8IasAudio12IasIRunnableD0Ev
libias-audio-common.so.4:_ZN8IasAudio12IasIRunnableD1Ev
libias-audio-common.so.4:_ZN8IasAudio12IasIRunnableD2Ev
libias-audio-common.so.4:_ZN8IasAudio12IasSrcFarrow11detunePitchEjj
libias-audio-common.so.4:_ZN8IasAudio12IasSrcFarrow13getOutputGainEv
libias-audio-common.so.4:_ZN8IasAudio12IasSrcFarrow13setBufferModeENS0_13IasBufferModeE
libias-audio-common.so.4:_ZN8IasAudio12IasSrcFarrow15processPullModeIffEENS0_9IasResultEPPT0_PPKT_jjPjSA_SA_jjjjf
libias-audio-common.so.4:_ZN8IasAudio12IasSrcFarrow15processPullModeIfiEENS0_9IasResultEPPT0_PPKT_jjPjSA_SA_jjjjf
libias-audio-common.so.4:_ZN8IasAudio12IasSrcFarrow15processPullModeIfsEENS0_9IasResultEPPT0_PPKT_jjPjSA_SA_jjjjf
libias-audio-common.so.4:_ZN8IasAudio12IasSrcFarrow15processPullModeIifEENS0_9IasResultEPPT0_PPKT_jjPjSA_SA_jjjjf
libias-audio-common.so.4:_ZN8IasAudio12IasSrcFarrow15processPullModeIiiEENS0_9IasResultEPPT0_PPKT_jjPjSA_SA_jjjjf
libias-audio-common.so.4:_ZN8IasAudio12IasSrcFarrow15processPullModeIisEENS0_9IasResultEPPT0_PPKT_jjPjSA_SA_jjjjf
libias-audio-common.so.4:_ZN8IasAudio12IasSrcFarrow15processPullModeIsfEENS0_9IasResultEPPT0_PPKT_jjPjSA_SA_jjjjf
libias-audio-common.so.4:_ZN8IasAudio12IasSrcFarrow15processPullModeIsiEENS0_9IasResultEPPT0_PPKT_jjPjSA_SA_jjjjf
libias-audio-common.so.4:_ZN8IasAudio12IasSrcFarrow15processPullModeIssEENS0_9IasResultEPPT0_PPKT_jjPjSA_SA_jjjjf
libias-audio-common.so.4:_ZN8IasAudio12IasSrcFarrow15processPushModeIffEENS0_9IasResultEPPT0_PPKT_jjPjSA_SA_jjjjf
libias-audio-common.so.4:_ZN8IasAudio12IasSrcFarrow15processPushModeIfiEENS0_9IasResultEPPT0_PPKT_jjPjSA_SA_jjjjf
libias-audio-common.so.4:_ZN8IasAudio12IasSrcFarrow15processPushModeIfsEENS0_9IasResultEPPT0_PPKT_jjPjSA_SA_jjjjf
libias-audio-common.so.4:_ZN8IasAudio12IasSrcFarrow15processPushModeIifEENS0_9IasResultEPPT0_PPKT_jjPjSA_SA_jjjjf
libias-audio-common.so.4:_ZN8IasAudio12IasSrcFarrow15processPushModeIiiEENS0_9IasResultEPPT0_PPKT_jjPjSA_SA_jjjjf
libias-audio-common.so.4:_ZN8IasAudio12IasSrcFarrow15processPushModeIisEENS0_9IasResultEPPT0_PPKT_jjPjSA_SA_jjjjf
libias-audio-common.so.4:_ZN8IasAudio12IasSrcFarrow15processPushModeIsfEENS0_9IasResultEPPT0_PPKT_jjPjSA_SA_jjjjf
libias-audio-common.so.4:_ZN8IasAudio12IasSrcFarrow15processPushModeIsiEENS0_9IasResultEPPT0_PPKT_jjPjSA_SA_jjjjf
libias-audio-common.so.4:_ZN8IasAudio12IasSrcFarrow15processPushModeIssEENS0_9IasResultEPPT0_PPKT_jjPjSA_SA_jjjjf
libias-audio-common.so.4:_ZN8IasAudio12IasSrcFarrow18setConversionRatioEjj
libias-audio-common.so.4:_ZN8IasAudio12IasSrcFarrow21executeQueuedCommandsEv
libias-audio-common.so.4:_ZN8IasAudio12IasSrcFarrow4initEj
libias-audio-common.so.4:_ZN8IasAudio12IasSrcFarrow5resetEv
libias-audio-common.so.4:_ZN8IasAudio12IasSrcFarrowC1Ev
libias-audio-common.so.4:_ZN8IasAudio12IasSrcFarrowC2Ev
libias-audio-common.so.4:_ZN8IasAudio12IasSrcFarrowD1Ev
libias-audio-common.so.4:_ZN8IasAudio12IasSrcFarrowD2Ev
libias-audio-common.so.4:_ZN8IasAudio13IasSrcWrapperIffE4initERNS_19IasSrcWrapperParamsEPKNS_12IasAudioAreaES6_
libias-audio-common.so.4:_ZN8IasAudio13IasSrcWrapperIffE5resetEv
libias-audio-common.so.4:_ZN8IasAudio13IasSrcWrapperIffE7processEPjS2_jjjj
libias-audio-common.so.4:_ZN8IasAudio13IasSrcWrapperIffEC1Ev
libias-audio-common.so.4:_ZN8IasAudio13IasSrcWrapperIffEC2Ev
libias-audio-common.so.4:_ZN8IasAudio13IasSrcWrapperIffED0Ev
libias-audio-common.so.4:_ZN8IasAudio13IasSrcWrapperIffED1Ev
libias-audio-common.so.4:_ZN8IasAudio13IasSrcWrapperIffED2Ev
libias-audio-common.so.4:_ZN8IasAudio13IasSrcWrapperIfiE4initERNS_19IasSrcWrapperParamsEPKNS_12IasAudioAreaES6_
libias-audio-common.so.4:_ZN8IasAudio13IasSrcWrapperIfiE5resetEv
libias-audio-common.so.4:_ZN8IasAudio13IasSrcWrapperIfiE7processEPjS2_jjjj
libias-audio-common.so.4:_ZN8IasAudio13IasSrcWrapperIfiEC1Ev
libias-audio-common.so.4:_ZN8IasAudio13IasSrcWrapperIfiEC2Ev
libias-audio-common.so.4:_ZN8IasAudio13IasSrcWrapperIfiED0Ev
libias-audio-common.so.4:_ZN8IasAudio13IasSrcWrapperIfiED1Ev
libias-audio-common.so.4:_ZN8IasAudio13IasSrcWrapperIfiED2Ev
libias-audio-common.so.4:_ZN8IasAudio13IasSrcWrapperIfsE4initERNS_19IasSrcWrapperParamsEPKNS_12IasAudioAreaES6_
libias-audio-common.so.4:_ZN8IasAudio13IasSrcWrapperIfsE5resetEv
libias-audio-common.so.4:_ZN8IasAudio13IasSrcWrapperIfsE7processEPjS2_jjjj
libias-audio-common.so.4:_ZN8IasAudio13IasSrcWrapperIfsEC1Ev
libias-audio-common.so.4:_ZN8IasAudio13IasSrcWrapperIfsEC2Ev
libias-audio-common.so.4:_ZN8IasAudio13IasSrcWrapperIfsED0Ev
libias-audio-common.so.4:_ZN8IasAudio13IasSrcWrapperIfsED1Ev
libias-audio-common.so.4:_ZN8IasAudio13IasSrcWrapperIfsED2Ev
libias-audio-common.so.4:_ZN8IasAudio13IasSrcWrapperIifE4initERNS_19IasSrcWrapperParamsEPKNS_12IasAudioAreaES6_
libias-audio-common.so.4:_ZN8IasAudio13IasSrcWrapperIifE5resetEv
libias-audio-common.so.4:_ZN8IasAudio13IasSrcWrapperIifE7processEPjS2_jjjj
libias-audio-common.so.4:_ZN8IasAudio13IasSrcWrapperIifEC1Ev
libias-audio-common.so.4:_ZN8IasAudio13IasSrcWrapperIifEC2Ev
libias-audio-common.so.4:_ZN8IasAudio13IasSrcWrapperIifED0Ev
libias-audio-common.so.4:_ZN8IasAudio13IasSrcWrapperIifED1Ev
libias-audio-common.so.4:_ZN8IasAudio13IasSrcWrapperIifED2Ev
libias-audio-common.so.4:_ZN8IasAudio13IasSrcWrapperIiiE4initERNS_19IasSrcWrapperParamsEPKNS_12IasAudioAreaES6_
libias-audio-common.so.4:_ZN8IasAudio13IasSrcWrapperIiiE5resetEv
libias-audio-common.so.4:_ZN8IasAudio13IasSrcWrapperIiiE7processEPjS2_jjjj
libias-audio-common.so.4:_ZN8IasAudio13IasSrcWrapperIiiEC1Ev
libias-audio-common.so.4:_ZN8IasAudio13IasSrcWrapperIiiEC2Ev
libias-audio-common.so.4:_ZN8IasAudio13IasSrcWrapperIiiED0Ev
libias-audio-common.so.4:_ZN8IasAudio13IasSrcWrapperIiiED1Ev
libias-audio-common.so.4:_ZN8IasAudio13IasSrcWrapperIiiED2Ev
libias-audio-common.so.4:_ZN8IasAudio13IasSrcWrapperIisE4initERNS_19IasSrcWrapperParamsEPKNS_12IasAudioAreaES6_
libias-audio-common.so.4:_ZN8IasAudio13IasSrcWrapperIisE5resetEv
libias-audio-common.so.4:_ZN8IasAudio13IasSrcWrapperIisE7processEPjS2_jjjj
libias-audio-common.so.4:_ZN8IasAudio13IasSrcWrapperIisEC1Ev
libias-audio-common.so.4:_ZN8IasAudio13IasSrcWrapperIisEC2Ev
libias-audio-common.so.4:_ZN8IasAudio13IasSrcWrapperIisED0Ev
libias-audio-common.so.4:_ZN8IasAudio13IasSrcWrapperIisED1Ev
libias-audio-common.so.4:_ZN8IasAudio13IasSrcWrapperIisED2Ev
libias-audio-common.so.4:_ZN8IasAudio13IasSrcWrapperIsfE4initERNS_19IasSrcWrapperParamsEPKNS_12IasAudioAreaES6_
libias-audio-common.so.4:_ZN8IasAudio13IasSrcWrapperIsfE5resetEv
libias-audio-common.so.4:_ZN8IasAudio13IasSrcWrapperIsfE7processEPjS2_jjjj
libias-audio-common.so.4:_ZN8IasAudio13IasSrcWrapperIsfEC1Ev
libias-audio-common.so.4:_ZN8IasAudio13IasSrcWrapperIsfEC2Ev
libias-audio-common.so.4:_ZN8IasAudio13IasSrcWrapperIsfED0Ev
libias-audio-common.so.4:_ZN8IasAudio13IasSrcWrapperIsfED1Ev
libias-audio-common.so.4:_ZN8IasAudio13IasSrcWrapperIsfED2Ev
libias-audio-common.so.4:_ZN8IasAudio13IasSrcWrapperIsiE4initERNS_19IasSrcWrapperParamsEPKNS_12IasAudioAreaES6_
libias-audio-common.so.4:_ZN8IasAudio13IasSrcWrapperIsiE5resetEv
libias-audio-common.so.4:_ZN8IasAudio13IasSrcWrapperIsiE7processEPjS2_jjjj
libias-audio-common.so.4:_ZN8IasAudio13IasSrcWrapperIsiEC1Ev
libias-audio-common.so.4:_ZN8IasAudio13IasSrcWrapperIsiEC2Ev
libias-audio-common.so.4:_ZN8IasAudio13IasSrcWrapperIsiED0Ev
libias-audio-common.so.4:_ZN8IasAudio13IasSrcWrapperIsiED1Ev
libias-audio-common.so.4:_ZN8IasAudio13IasSrcWrapperIsiED2Ev
libias-audio-common.so.4:_ZN8IasAudio13IasSrcWrapperIssE4initERNS_19IasSrcWrapperParamsEPKNS_12IasAudioAreaES6_
libias-audio-common.so.4:_ZN8IasAudio13IasSrcWrapperIssE5resetEv
libias-audio-common.so.4:_ZN8IasAudio13IasSrcWrapperIssE7processEPjS2_jjjj
libias-audio-common.so.4:_ZN8IasAudio13IasSrcWrapperIssEC1Ev
libias-audio-common.so.4:_ZN8IasAudio13IasSrcWrapperIssEC2Ev
libias-audio-common.so.4:_ZN8IasAudio13IasSrcWrapperIssED0Ev
libias-audio-common.so.4:_ZN8IasAudio13IasSrcWrapperIssED1Ev
libias-audio-common.so.4:_ZN8IasAudio13IasSrcWrapperIssED2Ev
libias-audio-common.so.4:_ZN8IasAudio15IasAudioLogging13getDltContextENSt7__cxx1112basic_stringIcSt11char_traitsIcESaIcEEE
libias-audio-common.so.4:_ZN8IasAudio15IasAudioLogging14registerDltAppEb
libias-audio-common.so.4:_ZN8IasAudio15IasAudioLogging17addDltContextItemENSt7__cxx1112basic_stringIcSt11char_traitsIcESaIcEEE15DltLogLevelType18DltTraceStatusType
libias-audio-common.so.4:_ZN8IasAudio15IasAudioLogging18registerDltContextENSt7__cxx1112basic_stringIcSt11char_traitsIcESaIcEEEPKc
libias-audio-common.so.4:_ZN8IasAudio15IasAudioLogging20audioLoggingInstanceEv
libias-audio-common.so.4:_ZN8IasAudio15IasAudioLogging6getMapB5cxx11Ev
libias-audio-common.so.4:_ZN8IasAudio15IasAudioLogging8getMutexEv
libias-audio-common.so.4:_ZN8IasAudio15IasAudioLoggingC1Ev
libias-audio-common.so.4:_ZN8IasAudio15IasAudioLoggingC2Ev
libias-audio-common.so.4:_ZN8IasAudio15IasAudioLoggingD0Ev
libias-audio-common.so.4:_ZN8IasAudio15IasAudioLoggingD1Ev
libias-audio-common.so.4:_ZN8IasAudio15IasAudioLoggingD2Ev
libias-audio-common.so.4:_ZN8IasAudio15IasIntProcMutex4lockEv
libias-audio-common.so.4:_ZN8IasAudio15IasIntProcMutex6unlockEv
libias-audio-common.so.4:_ZN8IasAudio15IasIntProcMutex7trylockEv
libias-audio-common.so.4:_ZN8IasAudio15IasIntProcMutexC1Ev
libias-audio-common.so.4:_ZN8IasAudio15IasIntProcMutexC2Ev
libias-audio-common.so.4:_ZN8IasAudio15IasIntProcMutexD0Ev
libias-audio-common.so.4:_ZN8IasAudio15IasIntProcMutexD1Ev
libias-audio-common.so.4:_ZN8IasAudio15IasIntProcMutexD2Ev
libias-audio-common.so.4:_ZN8IasAudio15ias_safe_memcpyEPvmPKvm
libias-audio-common.so.4:_ZN8IasAudio16IasSrcController21setJitterBufferParamsEjj
libias-audio-common.so.4:_ZN8IasAudio16IasSrcController4initEv
libias-audio-common.so.4:_ZN8IasAudio16IasSrcController5resetEv
libias-audio-common.so.4:_ZN8IasAudio16IasSrcController7processEPfPbj
libias-audio-common.so.4:_ZN8IasAudio16IasSrcControllerC1Ev
libias-audio-common.so.4:_ZN8IasAudio16IasSrcControllerC2Ev
libias-audio-common.so.4:_ZN8IasAudio16IasSrcControllerD1Ev
libias-audio-common.so.4:_ZN8IasAudio16IasSrcControllerD2Ev
libias-audio-common.so.4:_ZN8IasAudio17IasIntProcCondVar4waitERNS_15IasIntProcMutexE
libias-audio-common.so.4:_ZN8IasAudio17IasIntProcCondVar4waitERNS_15IasIntProcMutexEm
libias-audio-common.so.4:_ZN8IasAudio17IasIntProcCondVar6signalEv
libias-audio-common.so.4:_ZN8IasAudio17IasIntProcCondVarC1Ev
libias-audio-common.so.4:_ZN8IasAudio17IasIntProcCondVarC2Ev
libias-audio-common.so.4:_ZN8IasAudio17IasIntProcCondVarD0Ev
libias-audio-common.so.4:_ZN8IasAudio17IasIntProcCondVarD1Ev
libias-audio-common.so.4:_ZN8IasAudio17IasIntProcCondVarD2Ev
libias-audio-common.so.4:_ZN8IasAudio18IasAudioRingBuffer11beginAccessENS_19IasRingBufferAccessEPPNS_12IasAudioAreaEPjS5_
libias-audio-common.so.4:_ZN8IasAudio18IasAudioRingBuffer11setAvailMinEj
libias-audio-common.so.4:_ZN8IasAudio18IasAudioRingBuffer11setBoundaryEm
libias-audio-common.so.4:_ZN8IasAudio18IasAudioRingBuffer11setFdSignalEPNS_11IasFdSignalENS_13IasDeviceTypeE
libias-audio-common.so.4:_ZN8IasAudio18IasAudioRingBuffer15resetFromReaderEv
libias-audio-common.so.4:_ZN8IasAudio18IasAudioRingBuffer15resetFromWriterEv
libias-audio-common.so.4:_ZN8IasAudio18IasAudioRingBuffer15setDeviceHandleEPvjj
libias-audio-common.so.4:_ZN8IasAudio18IasAudioRingBuffer15setNonBlockModeEb
libias-audio-common.so.4:_ZN8IasAudio18IasAudioRingBuffer15triggerFdSignalEv
libias-audio-common.so.4:_ZN8IasAudio18IasAudioRingBuffer15updateAvailableENS_19IasRingBufferAccessEPj
libias-audio-common.so.4:_ZN8IasAudio18IasAudioRingBuffer17clearDeviceHandleEv
libias-audio-common.so.4:_ZN8IasAudio18IasAudioRingBuffer17setStreamingStateENS_32IasAudioRingBufferStreamingStateE
libias-audio-common.so.4:_ZN8IasAudio18IasAudioRingBuffer4initEjPNS_24IasAudioRingBufferMirrorE
libias-audio-common.so.4:_ZN8IasAudio18IasAudioRingBuffer4initEjjjNS_24IasAudioCommonDataFormatEPvbPNS_11IasMetaDataEPNS_22IasAudioRingBufferRealE
libias-audio-common.so.4:_ZN8IasAudio18IasAudioRingBuffer5setupEPNS_22IasAudioRingBufferRealE
libias-audio-common.so.4:_ZN8IasAudio18IasAudioRingBuffer7setNameERKNSt7__cxx1112basic_stringIcSt11char_traitsIcESaIcEEE
libias-audio-common.so.4:_ZN8IasAudio18IasAudioRingBuffer7zeroOutEv
libias-audio-common.so.4:_ZN8IasAudio18IasAudioRingBuffer8waitReadEjj
libias-audio-common.so.4:_ZN8IasAudio18IasAudioRingBuffer9endAccessENS_19IasRingBufferAccessEjj
libias-audio-common.so.4:_ZN8IasAudio18IasAudioRingBuffer9waitWriteEjj
libias-audio-common.so.4:_ZN8IasAudio18IasAudioRingBufferC1Ev
libias-audio-common.so.4:_ZN8IasAudio18IasAudioRingBufferC2Ev
libias-audio-common.so.4:_ZN8IasAudio18IasAudioRingBufferD0Ev
libias-audio-common.so.4:_ZN8IasAudio18IasAudioRingBufferD1Ev
libias-audio-common.so.4:_ZN8IasAudio18IasAudioRingBufferD2Ev
libias-audio-common.so.4:_ZN8IasAudio18IasDataProbeHelper17processQueueEntryERNS_20IasProbingQueueEntryEPSt10shared_ptrINS_12IasDataProbeEEPSt6atomicIbEj
libias-audio-common.so.4:_ZN8IasAudio18IasDataProbeHelper17processQueueEntryERNS_20IasProbingQueueEntryEPSt10shared_ptrINS_12IasDataProbeEEj
libias-audio-common.so.4:_ZN8IasAudio18IasMemoryAllocator10deallocateEPv
libias-audio-common.so.4:_ZN8IasAudio18IasMemoryAllocator11changeGroupERKNSt7__cxx1112basic_stringIcSt11char_traitsIcESaIcEEEPS6_
libias-audio-common.so.4:_ZN8IasAudio18IasMemoryAllocator12allocateHeapEjjPPv
libias-audio-common.so.4:_ZN8IasAudio18IasMemoryAllocator14allocateSharedEjjPPv
libias-audio-common.so.4:_ZN8IasAudio18IasMemoryAllocator14deallocateHeapEPv
libias-audio-common.so.4:_ZN8IasAudio18IasMemoryAllocator16deallocateSharedEPv
libias-audio-common.so.4:_ZN8IasAudio18IasMemoryAllocator4initENS0_11IasOpenFlagE
libias-audio-common.so.4:_ZN8IasAudio18IasMemoryAllocator4initENS0_11IasOpenFlagEPNSt7__cxx1112basic_stringIcSt11char_traitsIcESaIcEEE
libias-audio-common.so.4:_ZN8IasAudio18IasMemoryAllocator8allocateEjjPPv
libias-audio-common.so.4:_ZN8IasAudio18IasMemoryAllocatorC1ERKNSt7__cxx1112basic_stringIcSt11char_traitsIcESaIcEEEjb
libias-audio-common.so.4:_ZN8IasAudio18IasMemoryAllocatorC2ERKNSt7__cxx1112basic_stringIcSt11char_traitsIcESaIcEEEjb
libias-audio-common.so.4:_ZN8IasAudio18IasMemoryAllocatorD1Ev
libias-audio-common.so.4:_ZN8IasAudio18IasMemoryAllocatorD2Ev
libias-audio-common.so.4:_ZN8IasAudio18IasMetaDataFactory6createERKNSt7__cxx1112basic_stringIcSt11char_traitsIcESaIcEEEjPPNS_11IasMetaDataE
libias-audio-common.so.4:_ZN8IasAudio18IasMetaDataFactory7destroyEPNS_11IasMetaDataE
libias-audio-common.so.4:_ZN8IasAudio18IasMetaDataFactory7getSizeEj
libias-audio-common.so.4:_ZN8IasAudio18IasMetaDataFactoryC1EPNS_18IasMemoryAllocatorE
libias-audio-common.so.4:_ZN8IasAudio18IasMetaDataFactoryC2EPNS_18IasMemoryAllocatorE
libias-audio-common.so.4:_ZN8IasAudio18IasMetaDataFactoryD0Ev
libias-audio-common.so.4:_ZN8IasAudio18IasMetaDataFactoryD1Ev
libias-audio-common.so.4:_ZN8IasAudio18IasMetaDataFactoryD2Ev
libias-audio-common.so.4:_ZN8IasAudio19getLibCommonVersionEv
libias-audio-common.so.4:_ZN8IasAudio20convertAreaIasToAlsaERKNS_12IasAudioAreaEP21_snd_pcm_channel_area
libias-audio-common.so.4:_ZN8IasAudio20copyAudioAreaBuffersEPKNS_12IasAudioAreaENS_24IasAudioCommonDataFormatEjjjjS2_S3_jjjj
libias-audio-common.so.4:_ZN8IasAudio20zeroAudioAreaBuffersEPKNS_12IasAudioAreaENS_24IasAudioCommonDataFormatEjjjj
libias-audio-common.so.4:_ZN8IasAudio21IasSrcFarrowFirFilter15setFilterLengthEj
libias-audio-common.so.4:_ZN8IasAudio21IasSrcFarrowFirFilter18setImpulseResponseEPPKfj
libias-audio-common.so.4:_ZN8IasAudio21IasSrcFarrowFirFilter22multiInputInsertSampleIfEEiPPKT_jj
libias-audio-common.so.4:_ZN8IasAudio21IasSrcFarrowFirFilter22multiInputInsertSampleIiEEiPPKT_jj
libias-audio-common.so.4:_ZN8IasAudio21IasSrcFarrowFirFilter22multiInputInsertSampleIsEEiPPKT_jj
libias-audio-common.so.4:_ZN8IasAudio21IasSrcFarrowFirFilter23multiInputProcessSampleIfEEiPPT_jj
libias-audio-common.so.4:_ZN8IasAudio21IasSrcFarrowFirFilter23multiInputProcessSampleIiEEiPPT_jj
libias-audio-common.so.4:_ZN8IasAudio21IasSrcFarrowFirFilter23multiInputProcessSampleIsEEiPPT_jj
libias-audio-common.so.4:_ZN8IasAudio21IasSrcFarrowFirFilter23singleInputInsertSampleEPKfj
libias-audio-common.so.4:_ZN8IasAudio21IasSrcFarrowFirFilter24singleInputProcessSampleEPf
libias-audio-common.so.4:_ZN8IasAudio21IasSrcFarrowFirFilter4initEjjj
libias-audio-common.so.4:_ZN8IasAudio21IasSrcFarrowFirFilter5resetEv
libias-audio-common.so.4:_ZN8IasAudio21IasSrcFarrowFirFilterC1Ev
libias-audio-common.so.4:_ZN8IasAudio21IasSrcFarrowFirFilterC2Ev
libias-audio-common.so.4:_ZN8IasAudio21IasSrcFarrowFirFilterD1Ev
libias-audio-common.so.4:_ZN8IasAudio21IasSrcFarrowFirFilterD2Ev
libias-audio-common.so.4:_ZN8IasAudio22IasAudioRingBufferReal11beginAccessENS_19IasRingBufferAccessEPjS2_
libias-audio-common.so.4:_ZN8IasAudio22IasAudioRingBufferReal11setAvailMinEj
libias-audio-common.so.4:_ZN8IasAudio22IasAudioRingBufferReal11setBoundaryEm
libias-audio-common.so.4:_ZN8IasAudio22IasAudioRingBufferReal11setFdSignalEPNS_11IasFdSignalENS_13IasDeviceTypeE
libias-audio-common.so.4:_ZN8IasAudio22IasAudioRingBufferReal12getTimestampENS_19IasRingBufferAccessEPNS_17IasAudioTimestampE
libias-audio-common.so.4:_ZN8IasAudio22IasAudioRingBufferReal15resetFromReaderEv
libias-audio-common.so.4:_ZN8IasAudio22IasAudioRingBufferReal15resetFromWriterEv
libias-audio-common.so.4:_ZN8IasAudio22IasAudioRingBufferReal15triggerFdSignalEv
libias-audio-common.so.4:_ZN8IasAudio22IasAudioRingBufferReal15updateAvailableENS_19IasRingBufferAccessEPj
libias-audio-common.so.4:_ZN8IasAudio22IasAudioRingBufferReal4initEjjjNS_24IasAudioCommonDataFormatEPvbPNS_11IasMetaDataE
libias-audio-common.so.4:_ZN8IasAudio22IasAudioRingBufferReal7zeroOutEv
libias-audio-common.so.4:_ZN8IasAudio22IasAudioRingBufferReal8waitReadEjj
libias-audio-common.so.4:_ZN8IasAudio22IasAudioRingBufferReal9endAccessENS_19IasRingBufferAccessEjj
libias-audio-common.so.4:_ZN8IasAudio22IasAudioRingBufferReal9waitWriteEjj
libias-audio-common.so.4:_ZN8IasAudio22IasAudioRingBufferRealC1Ev
libias-audio-common.so.4:_ZN8IasAudio22IasAudioRingBufferRealC2Ev
libias-audio-common.so.4:_ZN8IasAudio22IasAudioRingBufferRealD1Ev
libias-audio-common.so.4:_ZN8IasAudio22IasAudioRingBufferRealD2Ev
libias-audio-common.so.4:_ZN8IasAudio22convertFormatAlsaToIasERK15_snd_pcm_format
libias-audio-common.so.4:_ZN8IasAudio22convertFormatIasToAlsaERKNS_24IasAudioCommonDataFormatE
libias-audio-common.so.4:_ZN8IasAudio24IasAudioRingBufferMirror11beginAccessEPNS_12IasAudioAreaEPjS3_
libias-audio-common.so.4:_ZN8IasAudio24IasAudioRingBufferMirror12xrunRecoveryEi
libias-audio-common.so.4:_ZN8IasAudio24IasAudioRingBufferMirror15setDeviceHandleEPvjj
libias-audio-common.so.4:_ZN8IasAudio24IasAudioRingBufferMirror15setNonBlockModeEb
libias-audio-common.so.4:_ZN8IasAudio24IasAudioRingBufferMirror15updateAvailableENS_19IasRingBufferAccessEPj
libias-audio-common.so.4:_ZN8IasAudio24IasAudioRingBufferMirror17clearDeviceHandleEv
libias-audio-common.so.4:_ZN8IasAudio24IasAudioRingBufferMirror4initEj
libias-audio-common.so.4:_ZN8IasAudio24IasAudioRingBufferMirror9endAccessEjj
libias-audio-common.so.4:_ZN8IasAudio24IasAudioRingBufferMirrorC1Ev
libias-audio-common.so.4:_ZN8IasAudio24IasAudioRingBufferMirrorC2Ev
libias-audio-common.so.4:_ZN8IasAudio24IasAudioRingBufferMirrorD0Ev
libias-audio-common.so.4:_ZN8IasAudio24IasAudioRingBufferMirrorD1Ev
libias-audio-common.so.4:_ZN8IasAudio24IasAudioRingBufferMirrorD2Ev
libias-audio-common.so.4:_ZN8IasAudio25IasAudioRingBufferFactory11getInstanceEv
libias-audio-common.so.4:_ZN8IasAudio25IasAudioRingBufferFactory14findRingBufferENSt7__cxx1112basic_stringIcSt11char_traitsIcESaIcEEE
libias-audio-common.so.4:_ZN8IasAudio25IasAudioRingBufferFactory14loseRingBufferEPNS_18IasAudioRingBufferE
libias-audio-common.so.4:_ZN8IasAudio25IasAudioRingBufferFactory16createRingBufferEPPNS_18IasAudioRingBufferEjjjNS_24IasAudioCommonDataFormatENS_17IasRingbufferTypeENSt7__cxx1112basic_stringIcSt11char_traitsIcESaIcEEESB_
libias-audio-common.so.4:_ZN8IasAudio25IasAudioRingBufferFactory17destroyRingBufferEPNS_18IasAudioRingBufferE
libias-audio-common.so.4:_ZN8IasAudio25IasAudioRingBufferFactoryC1Ev
libias-audio-common.so.4:_ZN8IasAudio25IasAudioRingBufferFactoryC2Ev
libias-audio-common.so.4:_ZN8IasAudio25IasAudioRingBufferFactoryD1Ev
libias-audio-common.so.4:_ZN8IasAudio25IasAudioRingBufferFactoryD2Ev
libias-audio-common.so.4:_ZN8IasAudio26IasAlsaPluginShmConnection14findConnectionERKNSt7__cxx1112basic_stringIcSt11char_traitsIcESaIcEEE
libias-audio-common.so.4:_ZN8IasAudio26IasAlsaPluginShmConnection16createConnectionERKNSt7__cxx1112basic_stringIcSt11char_traitsIcESaIcEEES8_
libias-audio-common.so.4:_ZN8IasAudio26IasAlsaPluginShmConnection16createRingBufferESt10shared_ptrINS_20IasAudioDeviceParamsEE
libias-audio-common.so.4:_ZN8IasAudio26IasAlsaPluginShmConnection22verifyAndGetRingBufferEv
libias-audio-common.so.4:_ZN8IasAudio26IasAlsaPluginShmConnectionC1Ev
libias-audio-common.so.4:_ZN8IasAudio26IasAlsaPluginShmConnectionC2Ev
libias-audio-common.so.4:_ZN8IasAudio26IasAlsaPluginShmConnectionD1Ev
libias-audio-common.so.4:_ZN8IasAudio26IasAlsaPluginShmConnectionD2Ev
libias-audio-common.so.4:_ZN8IasAudio26convertAccessTypeIasToAlsaERKNS_24IasAudioCommonDataLayoutE
libias-audio-common.so.4:_ZN8IasAudio26convertAccessTypeIasToAlsaERKNS_24IasAudioCommonDataLayoutERKNS_20IasAudioCommonAccessE
libias-audio-common.so.4:_ZN8IasAudio28convertChannelCountAlsaToIasERKj
libias-audio-common.so.4:_ZN8IasAudio28convertChannelCountIasToAlsaERKj
libias-audio-common.so.4:_ZN8IasAudio6toSizeERKNS_24IasAudioCommonDataFormatE
libias-audio-common.so.4:_ZN8IasAudio8toStringB5cxx11ERKNS_12IasAudioAreaE
libias-audio-common.so.4:_ZN8IasAudio8toStringB5cxx11ERKNS_12IasClockTypeE
libias-audio-common.so.4:_ZN8IasAudio8toStringB5cxx11ERKNS_12IasDataProbe9IasResultE
libias-audio-common.so.4:_ZN8IasAudio8toStringB5cxx11ERKNS_12IasSrcFarrow9IasResultE
libias-audio-common.so.4:_ZN8IasAudio8toStringB5cxx11ERKNS_13IasDeviceTypeE
libias-audio-common.so.4:_ZN8IasAudio8toStringB5cxx11ERKNS_15IasIntProcMutex9IasResultE
libias-audio-common.so.4:_ZN8IasAudio8toStringB5cxx11ERKNS_15IasThreadResultE
libias-audio-common.so.4:_ZN8IasAudio8toStringB5cxx11ERKNS_16IasPortDirectionE
libias-audio-common.so.4:_ZN8IasAudio8toStringB5cxx11ERKNS_16IasProbingActionE
libias-audio-common.so.4:_ZN8IasAudio8toStringB5cxx11ERKNS_16IasSrcController9IasResultE
libias-audio-common.so.4:_ZN8IasAudio8toStringB5cxx11ERKNS_17IasIntProcCondVar9IasResultE
libias-audio-common.so.4:_ZN8IasAudio8toStringB5cxx11ERKNS_17IasRingbufferTypeE
libias-audio-common.so.4:_ZN8IasAudio8toStringB5cxx11ERKNS_19IasAudioPinLinkTypeE
libias-audio-common.so.4:_ZN8IasAudio8toStringB5cxx11ERKNS_19IasRingBufferAccessE
libias-audio-common.so.4:_ZN8IasAudio8toStringB5cxx11ERKNS_20IasAudioCommonAccessE
libias-audio-common.so.4:_ZN8IasAudio8toStringB5cxx11ERKNS_20IasAudioCommonResultE
libias-audio-common.so.4:_ZN8IasAudio8toStringB5cxx11ERKNS_24IasAudioCommonDataFormatE
libias-audio-common.so.4:_ZN8IasAudio8toStringB5cxx11ERKNS_24IasAudioCommonDataLayoutE
libias-audio-common.so.4:_ZN8IasAudio8toStringB5cxx11ERKNS_24IasAudioIpcPluginControlE
libias-audio-common.so.4:_ZN8IasAudio8toStringB5cxx11ERKNS_24IasAudioRingBufferResultE
libias-audio-common.so.4:_ZN8IasAudio8toStringB5cxx11ERKNS_32IasAudioRingBufferStreamingStateE
libias-audio-common.so.4:_ZN8IasAudio9IasThread13getThreadNameEmRNSt7__cxx1112basic_stringIcSt11char_traitsIcESaIcEEE
libias-audio-common.so.4:_ZN8IasAudio9IasThread13setThreadNameEmRKNSt7__cxx1112basic_stringIcSt11char_traitsIcESaIcEEE
libias-audio-common.so.4:_ZN8IasAudio9IasThread13setThreadNameEv
libias-audio-common.so.4:_ZN8IasAudio9IasThread23getSchedulingParametersERNS0_25IasThreadSchedulingPolicyERi
libias-audio-common.so.4:_ZN8IasAudio9IasThread23getSchedulingParametersEmRNS0_25IasThreadSchedulingPolicyERi
libias-audio-common.so.4:_ZN8IasAudio9IasThread23setSchedulingParametersENS0_25IasThreadSchedulingPolicyEi
libias-audio-common.so.4:_ZN8IasAudio9IasThread23setSchedulingParametersEmNS0_25IasThreadSchedulingPolicyEi
libias-audio-common.so.4:_ZN8IasAudio9IasThread26commitSchedulingParametersEmii
libias-audio-common.so.4:_ZN8IasAudio9IasThread27processSchedulingParametersENS0_25IasThreadSchedulingPolicyERiS2_
libias-audio-common.so.4:_ZN8IasAudio9IasThread3runEPv
libias-audio-common.so.4:_ZN8IasAudio9IasThread3runEv
libias-audio-common.so.4:_ZN8IasAudio9IasThread4stopEv
libias-audio-common.so.4:_ZN8IasAudio9IasThread5startEbPNS_12IasIRunnableE
libias-audio-common.so.4:_ZN8IasAudio9IasThread6signalEi
libias-audio-common.so.4:_ZN8IasAudio9IasThread6signalEmi
libias-audio-common.so.4:_ZN8IasAudio9IasThread7getNameB5cxx11Ev
libias-audio-common.so.4:_ZN8IasAudio9IasThreadC1EPNS_12IasIRunnableERKNSt7__cxx1112basic_stringIcSt11char_traitsIcESaIcEEEm
libias-audio-common.so.4:_ZN8IasAudio9IasThreadC2EPNS_12IasIRunnableERKNSt7__cxx1112basic_stringIcSt11char_traitsIcESaIcEEEm
libias-audio-common.so.4:_ZN8IasAudio9IasThreadD0Ev
libias-audio-common.so.4:_ZN8IasAudio9IasThreadD1Ev
libias-audio-common.so.4:_ZN8IasAudio9IasThreadD2Ev
libias-audio-common.so.4:_ZNK8IasAudio11IasFdSignal5getFdEv
libias-audio-common.so.4:_ZNK8IasAudio12IasSrcFarrow23updateImpulseResponseN4EPff
libias-audio-common.so.4:_ZNK8IasAudio12IasSrcFarrow23updateImpulseResponseN5EPff
libias-audio-common.so.4:_ZNK8IasAudio12IasSrcFarrow23updateImpulseResponseN6EPff
libias-audio-common.so.4:_ZNK8IasAudio12IasSrcFarrow23updateImpulseResponseN7EPff
libias-audio-common.so.4:_ZNK8IasAudio13IasSrcWrapperIffE11checkParamsEPNS_19IasSrcWrapperParamsE
libias-audio-common.so.4:_ZNK8IasAudio13IasSrcWrapperIfiE11checkParamsEPNS_19IasSrcWrapperParamsE
libias-audio-common.so.4:_ZNK8IasAudio13IasSrcWrapperIfsE11checkParamsEPNS_19IasSrcWrapperParamsE
libias-audio-common.so.4:_ZNK8IasAudio13IasSrcWrapperIifE11checkParamsEPNS_19IasSrcWrapperParamsE
libias-audio-common.so.4:_ZNK8IasAudio13IasSrcWrapperIiiE11checkParamsEPNS_19IasSrcWrapperParamsE
libias-audio-common.so.4:_ZNK8IasAudio13IasSrcWrapperIisE11checkParamsEPNS_19IasSrcWrapperParamsE
libias-audio-common.so.4:_ZNK8IasAudio13IasSrcWrapperIsfE11checkParamsEPNS_19IasSrcWrapperParamsE
libias-audio-common.so.4:_ZNK8IasAudio13IasSrcWrapperIsiE11checkParamsEPNS_19IasSrcWrapperParamsE
libias-audio-common.so.4:_ZNK8IasAudio13IasSrcWrapperIssE11checkParamsEPNS_19IasSrcWrapperParamsE
libias-audio-common.so.4:_ZNK8IasAudio18IasAudioRingBuffer12getHwPtrReadEv
libias-audio-common.so.4:_ZNK8IasAudio18IasAudioRingBuffer12getTimestampENS_19IasRingBufferAccessEPNS_17IasAudioTimestampE
libias-audio-common.so.4:_ZNK8IasAudio18IasAudioRingBuffer13getDataFormatEPNS_24IasAudioCommonDataFormatE
libias-audio-common.so.4:_ZNK8IasAudio18IasAudioRingBuffer13getHwPtrWriteEv
libias-audio-common.so.4:_ZNK8IasAudio18IasAudioRingBuffer13getReadOffsetEv
libias-audio-common.so.4:_ZNK8IasAudio18IasAudioRingBuffer14getWriteOffsetEv
libias-audio-common.so.4:_ZNK8IasAudio18IasAudioRingBuffer17getStreamingStateEv
libias-audio-common.so.4:_ZNK8IasAudio18IasAudioRingBuffer7getNameB5cxx11Ev
libias-audio-common.so.4:_ZNK8IasAudio18IasAudioRingBuffer8getAreasEPPNS_12IasAudioAreaE
libias-audio-common.so.4:_ZNK8IasAudio18IasMemoryAllocator13getFreeMemoryEPj
libias-audio-common.so.4:_ZNK8IasAudio18IasMetaDataFactory4findERKNSt7__cxx1112basic_stringIcSt11char_traitsIcESaIcEEEPjPPNS_11IasMetaDataE
libias-audio-common.so.4:_ZNK8IasAudio22IasAudioRingBufferReal13getDataFormatEPNS_24IasAudioCommonDataFormatE
libias-audio-common.so.4:_ZNK8IasAudio22IasAudioRingBufferReal13getPeriodSizeEv
libias-audio-common.so.4:_ZNK8IasAudio22IasAudioRingBufferReal16getNumberPeriodsEv
libias-audio-common.so.4:_ZNK8IasAudio24IasAudioRingBufferMirror11startDeviceEv
libias-audio-common.so.4:_ZNK8IasAudio24IasAudioRingBufferMirror12getTimestampEPNS_17IasAudioTimestampE
libias-audio-common.so.4:_ZNK8IasAudio24IasAudioRingBufferMirror13getDataFormatEPNS_24IasAudioCommonDataFormatE
